target datalayout = "e-m:e-p270:32:32-p271:32:32-p272:64:64-i64:64-i128:128-f80:128-n8:16:32:64-S128"
target triple = "x86_64-pc-linux-gnu"

%"class.std::basic_ostream" = type { ptr, %"class.std::basic_ios" }
%"class.std::basic_ios" = type { %"class.std::ios_base", ptr, i8, i8, ptr, ptr, ptr, ptr }
%"class.std::ios_base" = type { ptr, i64, i64, i32, i32, i32, ptr, %"struct.std::ios_base::_Words", [8 x %"struct.std::ios_base::_Words"], i32, ptr, %"class.std::locale" }
%"struct.std::ios_base::_Words" = type { ptr, i64 }
%"class.std::locale" = type { ptr }
%"struct.realclosure::manager::imp::display_ext_proc" = type { ptr, ptr }
%class.array = type { ptr }

@_ZSt4cout = external global %"class.std::basic_ostream", align 8

; Function Attrs: mustprogress nounwind uwtable
define linkonce_odr hidden noundef ptr @_ZNK5arrayIPN11realclosure5valueELb0EE4dataEv(ptr noundef nonnull align 8 dereferenceable(8) %0) #4 comdat align 2 {
  %2 = alloca ptr, align 8
  store ptr %0, ptr %2, align 8, !tbaa !220
  %3 = load ptr, ptr %2, align 8
  %4 = getelementptr inbounds nuw %class.array, ptr %3, i32 0, i32 0
  %5 = load ptr, ptr %4, align 8, !tbaa !222
  ret ptr %5
}

; Function Attrs: mustprogress nounwind uwtable
define linkonce_odr hidden noundef i32 @_ZNK5arrayIPN11realclosure5valueELb0EE4sizeEv(ptr noundef nonnull align 8 dereferenceable(8) %0) #4 comdat align 2 {
  %2 = alloca i32, align 4
  %3 = alloca ptr, align 8
  store ptr %0, ptr %3, align 8, !tbaa !220
  %4 = load ptr, ptr %3, align 8
  %5 = getelementptr inbounds nuw %class.array, ptr %4, i32 0, i32 0
  %6 = load ptr, ptr %5, align 8, !tbaa !222
  %7 = icmp eq ptr %6, null
  br i1 %7, label %8, label %9

8:                                                ; preds = %1
  store i32 0, ptr %2, align 4
  br label %15

9:                                                ; preds = %1
  %10 = getelementptr inbounds nuw %class.array, ptr %4, i32 0, i32 0
  %11 = load ptr, ptr %10, align 8, !tbaa !222
  %12 = getelementptr inbounds i64, ptr %11, i64 -1
  %13 = load i64, ptr %12, align 8, !tbaa !203
  %14 = trunc i64 %13 to i32
  store i32 %14, ptr %2, align 4
  br label %15

15:                                               ; preds = %9, %8
  %16 = load i32, ptr %2, align 4
  ret i32 %16
}

; Function Attrs: mustprogress uwtable
define linkonce_odr hidden void @_ZNK11realclosure7manager3imp18display_polynomialINS1_16display_ext_procEEEvRSoRK9ptr_arrayINS_5valueEERKT_bb(ptr noundef nonnull align 8 dereferenceable(1497) %0, ptr noundef nonnull align 8 dereferenceable(8) %1, ptr noundef nonnull align 8 dereferenceable(8) %2, ptr noundef nonnull align 8 dereferenceable(16) %3, i1 noundef zeroext %4, i1 noundef zeroext %5) #6 comdat align 2 {
  %7 = alloca ptr, align 8
  %8 = alloca ptr, align 8
  %9 = alloca ptr, align 8
  %10 = alloca ptr, align 8
  %11 = alloca i8, align 1
  %12 = alloca i8, align 1
  store ptr %0, ptr %7, align 8, !tbaa !28
  store ptr %1, ptr %8, align 8, !tbaa !106
  store ptr %2, ptr %9, align 8, !tbaa !124
  store ptr %3, ptr %10, align 8, !tbaa !596
  %13 = zext i1 %4 to i8
  store i8 %13, ptr %11, align 1, !tbaa !108
  %14 = zext i1 %5 to i8
  store i8 %14, ptr %12, align 1, !tbaa !108
  %15 = load ptr, ptr %7, align 8
  %16 = load ptr, ptr %8, align 8, !tbaa !106
  %17 = load ptr, ptr %9, align 8, !tbaa !124
  %18 = call noundef i32 @_ZNK5arrayIPN11realclosure5valueELb0EE4sizeEv(ptr noundef nonnull align 8 dereferenceable(8) %17)
  %19 = load ptr, ptr %9, align 8, !tbaa !124
  %20 = call noundef ptr @_ZNK5arrayIPN11realclosure5valueELb0EE4dataEv(ptr noundef nonnull align 8 dereferenceable(8) %19)
  %21 = load ptr, ptr %10, align 8, !tbaa !596
  %22 = load i8, ptr %11, align 1, !tbaa !108, !range !109, !noundef !110
  %23 = trunc i8 %22 to i1
  %24 = load i8, ptr %12, align 1, !tbaa !108, !range !109, !noundef !110
  %25 = trunc i8 %24 to i1
  call void @_ZNK11realclosure7manager3imp18display_polynomialINS1_16display_ext_procEEEvRSojPKPNS_5valueERKT_bb(ptr noundef nonnull align 8 dereferenceable(1497) %15, ptr noundef nonnull align 8 dereferenceable(8) %16, i32 noundef %18, ptr noundef %20, ptr noundef nonnull align 8 dereferenceable(16) %21, i1 noundef zeroext %23, i1 noundef zeroext %25)
  ret void
}

; Function Attrs: mustprogress nounwind uwtable
define linkonce_odr hidden void @_ZN11realclosure7manager3imp16display_ext_procC2ERKS1_PNS_9extensionE(ptr noundef nonnull align 8 dereferenceable(16) %0, ptr noundef nonnull align 8 dereferenceable(1497) %1, ptr noundef %2) unnamed_addr #4 comdat align 2 {
  %4 = alloca ptr, align 8
  %5 = alloca ptr, align 8
  %6 = alloca ptr, align 8
  store ptr %0, ptr %4, align 8, !tbaa !596
  store ptr %1, ptr %5, align 8, !tbaa !28
  store ptr %2, ptr %6, align 8, !tbaa !13
  %7 = load ptr, ptr %4, align 8
  %8 = getelementptr inbounds nuw %"struct.realclosure::manager::imp::display_ext_proc", ptr %7, i32 0, i32 0
  %9 = load ptr, ptr %5, align 8, !tbaa !28
  store ptr %9, ptr %8, align 8, !tbaa !28
  %10 = getelementptr inbounds nuw %"struct.realclosure::manager::imp::display_ext_proc", ptr %7, i32 0, i32 1
  %11 = load ptr, ptr %6, align 8, !tbaa !13
  store ptr %11, ptr %10, align 8, !tbaa !598
  ret void
}

; Function Attrs: mustprogress uwtable
define available_externally noundef nonnull align 8 dereferenceable(8) ptr @_ZNSolsEPFRSoS_E(ptr noundef nonnull align 8 dereferenceable(8) %0, ptr noundef %1) #6 align 2 {
  %3 = alloca ptr, align 8
  %4 = alloca ptr, align 8
  store ptr %0, ptr %3, align 8, !tbaa !106
  store ptr %1, ptr %4, align 8, !tbaa !127
  %5 = load ptr, ptr %3, align 8
  %6 = load ptr, ptr %4, align 8, !tbaa !127
  %7 = call noundef nonnull align 8 dereferenceable(8) ptr %6(ptr noundef nonnull align 8 dereferenceable(8) %5)
  ret ptr %7
}

; Function Attrs: mustprogress uwtable
define linkonce_odr hidden void @_ZNK11realclosure7manager3imp23display_polynomial_exprERSoRK9ptr_arrayINS_5valueEEPNS_9extensionEbb(ptr noundef nonnull align 8 dereferenceable(1497) %0, ptr noundef nonnull align 8 dereferenceable(8) %1, ptr noundef nonnull align 8 dereferenceable(8) %2, ptr noundef %3, i1 noundef zeroext %4, i1 noundef zeroext %5) #6 comdat align 2 {
  %7 = alloca ptr, align 8
  %8 = alloca ptr, align 8
  %9 = alloca ptr, align 8
  %10 = alloca ptr, align 8
  %11 = alloca i8, align 1
  %12 = alloca i8, align 1
  %13 = alloca %"struct.realclosure::manager::imp::display_ext_proc", align 8
  store ptr %0, ptr %7, align 8, !tbaa !28
  store ptr %1, ptr %8, align 8, !tbaa !106
  store ptr %2, ptr %9, align 8, !tbaa !124
  store ptr %3, ptr %10, align 8, !tbaa !13
  %14 = zext i1 %4 to i8
  store i8 %14, ptr %11, align 1, !tbaa !108
  %15 = zext i1 %5 to i8
  store i8 %15, ptr %12, align 1, !tbaa !108
  %16 = load ptr, ptr %7, align 8
  %17 = load ptr, ptr %8, align 8, !tbaa !106
  %18 = load ptr, ptr %9, align 8, !tbaa !124
  call void @llvm.lifetime.start.p0(i64 16, ptr %13) #3
  %19 = load ptr, ptr %10, align 8, !tbaa !13
  call void @_ZN11realclosure7manager3imp16display_ext_procC2ERKS1_PNS_9extensionE(ptr noundef nonnull align 8 dereferenceable(16) %13, ptr noundef nonnull align 8 dereferenceable(1497) %16, ptr noundef %19)
  %20 = load i8, ptr %11, align 1, !tbaa !108, !range !109, !noundef !110
  %21 = trunc i8 %20 to i1
  %22 = load i8, ptr %12, align 1, !tbaa !108, !range !109, !noundef !110
  %23 = trunc i8 %22 to i1
  call void @_ZNK11realclosure7manager3imp18display_polynomialINS1_16display_ext_procEEEvRSoRK9ptr_arrayINS_5valueEERKT_bb(ptr noundef nonnull align 8 dereferenceable(1497) %16, ptr noundef nonnull align 8 dereferenceable(8) %17, ptr noundef nonnull align 8 dereferenceable(8) %18, ptr noundef nonnull align 8 dereferenceable(16) %13, i1 noundef zeroext %21, i1 noundef zeroext %23)
  call void @llvm.lifetime.end.p0(i64 16, ptr %13) #3
  ret void
}

; Function Attrs: mustprogress uwtable
define hidden void @_Z2ppPN11realclosure7manager3impERK9ptr_arrayINS_5valueEEPNS_9extensionE(ptr noundef %0, ptr noundef nonnull align 8 dereferenceable(8) %1, ptr noundef %2) #6 {
  %4 = alloca ptr, align 8
  %5 = alloca ptr, align 8
  %6 = alloca ptr, align 8
  store ptr %0, ptr %4, align 8, !tbaa !28
  store ptr %1, ptr %5, align 8, !tbaa !124
  store ptr %2, ptr %6, align 8, !tbaa !13
  %7 = load ptr, ptr %4, align 8, !tbaa !28
  %8 = load ptr, ptr %5, align 8, !tbaa !124
  %9 = load ptr, ptr %6, align 8, !tbaa !13
  call void @_ZNK11realclosure7manager3imp23display_polynomial_exprERSoRK9ptr_arrayINS_5valueEEPNS_9extensionEbb(ptr noundef nonnull align 8 dereferenceable(1497) %7, ptr noundef nonnull align 8 dereferenceable(8) @_ZSt4cout, ptr noundef nonnull align 8 dereferenceable(8) %8, ptr noundef %9, i1 noundef zeroext false, i1 noundef zeroext false)
  %10 = call noundef nonnull align 8 dereferenceable(8) ptr @_ZNSolsEPFRSoS_E(ptr noundef nonnull align 8 dereferenceable(8) @_ZSt4cout, ptr noundef @_ZSt4endlIcSt11char_traitsIcEERSt13basic_ostreamIT_T0_ES6_)
  ret void
}