; Function Attrs: mustprogress uwtable
define hidden void @_Z2ppPN11realclosure7manager3impERK9ptr_arrayINS_5valueEEPNS_9extensionE(ptr noundef %0, ptr noundef nonnull readonly align 8 captures(none) dereferenceable(8) %1, ptr noundef %2) local_unnamed_addr #5 {
  %4 = alloca %"struct.realclosure::manager::imp::display_ext_proc", align 8
  call void @llvm.lifetime.start.p0(i64 16, ptr nonnull %4) #24
  store ptr %0, ptr %4, align 8, !tbaa !123
  %5 = getelementptr inbounds nuw i8, ptr %4, i64 8
  store ptr %2, ptr %5, align 8, !tbaa !165
  %6 = load ptr, ptr %1, align 8, !tbaa !143
  %7 = icmp eq ptr %6, null
  br i1 %7, label %_ZNK11realclosure7manager3imp23display_polynomial_exprERSoRK9ptr_arrayINS_5valueEEPNS_9extensionEbb.exit, label %8

8:                                                ; preds = %3
  %9 = getelementptr inbounds i8, ptr %6, i64 -8
  %10 = load i64, ptr %9, align 8, !tbaa !144
  %11 = trunc i64 %10 to i32
  br label %_ZNK11realclosure7manager3imp23display_polynomial_exprERSoRK9ptr_arrayINS_5valueEEPNS_9extensionEbb.exit

_ZNK11realclosure7manager3imp23display_polynomial_exprERSoRK9ptr_arrayINS_5valueEEPNS_9extensionEbb.exit: ; preds = %3, %8
  %.0.i.i.i = phi i32 [ %11, %8 ], [ 0, %3 ]
  call void @_ZNK11realclosure7manager3imp18display_polynomialINS1_16display_ext_procEEEvRSojPKPNS_5valueERKT_bb(ptr noundef nonnull align 8 dereferenceable(1497) %0, ptr noundef nonnull align 8 dereferenceable(8) @_ZSt4cout, i32 noundef %.0.i.i.i, ptr noundef %6, ptr noundef nonnull align 8 dereferenceable(16) %4, i1 noundef zeroext false, i1 noundef zeroext false)
  call void @llvm.lifetime.end.p0(i64 16, ptr nonnull %4) #24
  %12 = load ptr, ptr @_ZSt4cout, align 8, !tbaa !55
  %13 = getelementptr i8, ptr %12, i64 -24
  %14 = load i64, ptr %13, align 8
  %15 = getelementptr inbounds i8, ptr @_ZSt4cout, i64 %14
  %16 = getelementptr inbounds nuw i8, ptr %15, i64 240
  %17 = load ptr, ptr %16, align 8, !tbaa !167
  %.not.i.i.i = icmp eq ptr %17, null
  br i1 %.not.i.i.i, label %18, label %_ZSt13__check_facetISt5ctypeIcEERKT_PS3_.exit.i.i

18:                                               ; preds = %_ZNK11realclosure7manager3imp23display_polynomial_exprERSoRK9ptr_arrayINS_5valueEEPNS_9extensionEbb.exit
  call void @_ZSt16__throw_bad_castv() #26
  unreachable

_ZSt13__check_facetISt5ctypeIcEERKT_PS3_.exit.i.i: ; preds = %_ZNK11realclosure7manager3imp23display_polynomial_exprERSoRK9ptr_arrayINS_5valueEEPNS_9extensionEbb.exit
  %19 = getelementptr inbounds nuw i8, ptr %17, i64 56
  %20 = load i8, ptr %19, align 8, !tbaa !182
  %.not.i1.i.i = icmp eq i8 %20, 0
  br i1 %.not.i1.i.i, label %24, label %21

21:                                               ; preds = %_ZSt13__check_facetISt5ctypeIcEERKT_PS3_.exit.i.i
  %22 = getelementptr inbounds nuw i8, ptr %17, i64 67
  %23 = load i8, ptr %22, align 1, !tbaa !10
  br label %_ZSt4endlIcSt11char_traitsIcEERSt13basic_ostreamIT_T0_ES6_.exit

24:                                               ; preds = %_ZSt13__check_facetISt5ctypeIcEERKT_PS3_.exit.i.i
  call void @_ZNKSt5ctypeIcE13_M_widen_initEv(ptr noundef nonnull align 8 dereferenceable(570) %17)
  %25 = load ptr, ptr %17, align 8, !tbaa !55
  %26 = getelementptr inbounds nuw i8, ptr %25, i64 48
  %27 = load ptr, ptr %26, align 8
  %28 = call noundef signext i8 %27(ptr noundef nonnull align 8 dereferenceable(570) %17, i8 noundef signext 10)
  br label %_ZSt4endlIcSt11char_traitsIcEERSt13basic_ostreamIT_T0_ES6_.exit

_ZSt4endlIcSt11char_traitsIcEERSt13basic_ostreamIT_T0_ES6_.exit: ; preds = %21, %24
  %.0.i.i.i3 = phi i8 [ %23, %21 ], [ %28, %24 ]
  %29 = call noundef nonnull align 8 dereferenceable(8) ptr @_ZNSo3putEc(ptr noundef nonnull align 8 dereferenceable(8) @_ZSt4cout, i8 noundef signext %.0.i.i.i3)
  %30 = call noundef nonnull align 8 dereferenceable(8) ptr @_ZNSo5flushEv(ptr noundef nonnull align 8 dereferenceable(8) %29)
  ret void
}